; Function Attrs: mustprogress uwtable
define void @_ZN6icu_7522RuleBasedBreakIterator27registerExternalBreakEngineEPNS_19ExternalBreakEngineER10UErrorCode(ptr noundef %toAdopt, ptr noundef nonnull align 4 dereferenceable(4) %status) local_unnamed_addr #1 align 2 personality ptr @__gxx_personality_v0 {
entry:
  %cmp.i = icmp ne ptr %toAdopt, null
  %0 = load i32, ptr %status, align 4
  %cmp.i.i = icmp sgt i32 %0, 0
  %or.cond.i = select i1 %cmp.i, i1 true, i1 %cmp.i.i
  br i1 %or.cond.i, label %_ZN6icu_7512LocalPointerINS_19ExternalBreakEngineEEC2EPS1_R10UErrorCode.exit, label %cleanup.thread

cleanup.thread:                                   ; preds = %entry
  store i32 7, ptr %status, align 4
  br label %_ZN6icu_7512LocalPointerINS_19ExternalBreakEngineEED2Ev.exit12

_ZN6icu_7512LocalPointerINS_19ExternalBreakEngineEEC2EPS1_R10UErrorCode.exit: ; preds = %entry
  %cmp.i5 = icmp slt i32 %0, 1
  br i1 %cmp.i5, label %if.end, label %cleanup

lpad:                                             ; preds = %if.end
  %1 = landingpad { ptr, i32 }
          cleanup
  %isnull.i = icmp eq ptr %toAdopt, null
  br i1 %isnull.i, label %_ZN6icu_7512LocalPointerINS_19ExternalBreakEngineEED2Ev.exit, label %delete.notnull.i

delete.notnull.i:                                 ; preds = %lpad
  %vtable.i = load ptr, ptr %toAdopt, align 8
  %vfn.i = getelementptr inbounds i8, ptr %vtable.i, i64 8
  %2 = load ptr, ptr %vfn.i, align 8
  tail call void %2(ptr noundef nonnull align 8 dereferenceable(8) %toAdopt) #15
  br label %_ZN6icu_7512LocalPointerINS_19ExternalBreakEngineEED2Ev.exit

_ZN6icu_7512LocalPointerINS_19ExternalBreakEngineEED2Ev.exit: ; preds = %lpad, %delete.notnull.i
  resume { ptr, i32 } %1

if.end:                                           ; preds = %_ZN6icu_7512LocalPointerINS_19ExternalBreakEngineEEC2EPS1_R10UErrorCode.exit
  invoke void @_ZN6icu_7523ensureLanguageFactoriesER10UErrorCode(ptr noundef nonnull align 4 dereferenceable(4) %status)
          to label %invoke.cont1 unwind label %lpad

invoke.cont1:                                     ; preds = %if.end
  %3 = load i32, ptr %status, align 4
  %cmp.i6 = icmp slt i32 %3, 1
  br i1 %cmp.i6, label %if.end6, label %cleanup

if.end6:                                          ; preds = %invoke.cont1
  %4 = load ptr, ptr @_ZL24gICULanguageBreakFactory, align 8
  %vtable = load ptr, ptr %4, align 8
  %vfn = getelementptr inbounds i8, ptr %vtable, i64 24
  %5 = load ptr, ptr %vfn, align 8
  tail call void %5(ptr noundef nonnull align 8 dereferenceable(16) %4, ptr noundef %toAdopt, ptr noundef nonnull align 4 dereferenceable(4) %status)
  br label %_ZN6icu_7512LocalPointerINS_19ExternalBreakEngineEED2Ev.exit12

cleanup:                                          ; preds = %invoke.cont1, %_ZN6icu_7512LocalPointerINS_19ExternalBreakEngineEEC2EPS1_R10UErrorCode.exit
  %isnull.i8 = icmp eq ptr %toAdopt, null
  br i1 %isnull.i8, label %_ZN6icu_7512LocalPointerINS_19ExternalBreakEngineEED2Ev.exit12, label %delete.notnull.i9

delete.notnull.i9:                                ; preds = %cleanup
  %vtable.i10 = load ptr, ptr %toAdopt, align 8
  %vfn.i11 = getelementptr inbounds i8, ptr %vtable.i10, i64 8
  %6 = load ptr, ptr %vfn.i11, align 8
  tail call void %6(ptr noundef nonnull align 8 dereferenceable(8) %toAdopt) #15
  br label %_ZN6icu_7512LocalPointerINS_19ExternalBreakEngineEED2Ev.exit12

_ZN6icu_7512LocalPointerINS_19ExternalBreakEngineEED2Ev.exit12: ; preds = %cleanup.thread, %if.end6, %cleanup, %delete.notnull.i9
  ret void
}